target datalayout = "e-m:e-p270:32:32-p271:32:32-p272:64:64-i64:64-i128:128-f80:128-n8:16:32:64-S128"
target triple = "x86_64-pc-linux-gnu"

%union.Value = type { ptr }
%struct.Table = type { ptr, i8, i8, i8, i8, i32, ptr, ptr, ptr, ptr }
%struct.TValue = type { %union.Value, i8 }
%struct.TString = type { ptr, i8, i8, i8, i8, i32, %union.anon, ptr, ptr, ptr }
%union.anon = type { i64 }

; Function Attrs: nounwind uwtable
define internal i32 @retpsetcode(ptr noundef %0, ptr noundef %1) #0 {
  %3 = alloca i32, align 4
  %4 = alloca ptr, align 8
  %5 = alloca ptr, align 8
  store ptr %0, ptr %4, align 8, !tbaa !9
  store ptr %1, ptr %5, align 8, !tbaa !22
  %6 = load ptr, ptr %5, align 8, !tbaa !22
  %7 = getelementptr inbounds nuw %struct.TValue, ptr %6, i32 0, i32 1
  %8 = load i8, ptr %7, align 8, !tbaa !24
  %9 = zext i8 %8 to i32
  %10 = icmp eq i32 %9, 32
  br i1 %10, label %11, label %12

11:                                               ; preds = %2
  store i32 1, ptr %3, align 4
  br label %23

12:                                               ; preds = %2
  %13 = load ptr, ptr %5, align 8, !tbaa !22
  %14 = load ptr, ptr %4, align 8, !tbaa !9
  %15 = getelementptr inbounds nuw %struct.Table, ptr %14, i32 0, i32 7
  %16 = load ptr, ptr %15, align 8, !tbaa !28
  %17 = ptrtoint ptr %13 to i64
  %18 = ptrtoint ptr %16 to i64
  %19 = sub i64 %17, %18
  %20 = sdiv exact i64 %19, 24
  %21 = trunc i64 %20 to i32
  %22 = add nsw i32 %21, 3
  store i32 %22, ptr %3, align 4
  br label %23

23:                                               ; preds = %12, %11
  %24 = load i32, ptr %3, align 4
  ret i32 %24
}

; Function Attrs: nounwind uwtable
define internal i32 @finishnodeset(ptr noundef %0, ptr noundef %1, ptr noundef %2) #0 {
  %4 = alloca i32, align 4
  %5 = alloca ptr, align 8
  %6 = alloca ptr, align 8
  %7 = alloca ptr, align 8
  %8 = alloca ptr, align 8
  %9 = alloca ptr, align 8
  store ptr %0, ptr %5, align 8, !tbaa !9
  store ptr %1, ptr %6, align 8, !tbaa !22
  store ptr %2, ptr %7, align 8, !tbaa !22
  %10 = load ptr, ptr %6, align 8, !tbaa !22
  %11 = getelementptr inbounds nuw %struct.TValue, ptr %10, i32 0, i32 1
  %12 = load i8, ptr %11, align 8, !tbaa !24
  %13 = zext i8 %12 to i32
  %14 = and i32 %13, 15
  %15 = icmp eq i32 %14, 0
  br i1 %15, label %28, label %16

16:                                               ; preds = %3
  call void @llvm.lifetime.start.p0(i64 8, ptr %8) #8
  %17 = load ptr, ptr %6, align 8, !tbaa !22
  store ptr %17, ptr %8, align 8, !tbaa !22
  call void @llvm.lifetime.start.p0(i64 8, ptr %9) #8
  %18 = load ptr, ptr %7, align 8, !tbaa !22
  store ptr %18, ptr %9, align 8, !tbaa !22
  %19 = load ptr, ptr %8, align 8, !tbaa !22
  %20 = getelementptr inbounds nuw %struct.TValue, ptr %19, i32 0, i32 0
  %21 = load ptr, ptr %9, align 8, !tbaa !22
  %22 = getelementptr inbounds nuw %struct.TValue, ptr %21, i32 0, i32 0
  call void @llvm.memcpy.p0.p0.i64(ptr align 8 %20, ptr align 8 %22, i64 8, i1 false), !tbaa.struct !26
  %23 = load ptr, ptr %9, align 8, !tbaa !22
  %24 = getelementptr inbounds nuw %struct.TValue, ptr %23, i32 0, i32 1
  %25 = load i8, ptr %24, align 8, !tbaa !24
  %26 = load ptr, ptr %8, align 8, !tbaa !22
  %27 = getelementptr inbounds nuw %struct.TValue, ptr %26, i32 0, i32 1
  store i8 %25, ptr %27, align 8, !tbaa !24
  call void @llvm.lifetime.end.p0(i64 8, ptr %9) #8
  call void @llvm.lifetime.end.p0(i64 8, ptr %8) #8
  store i32 0, ptr %4, align 4
  br label %32

28:                                               ; preds = %3
  %29 = load ptr, ptr %5, align 8, !tbaa !9
  %30 = load ptr, ptr %6, align 8, !tbaa !22
  %31 = call i32 @retpsetcode(ptr noundef %29, ptr noundef %30)
  store i32 %31, ptr %4, align 4
  br label %32

32:                                               ; preds = %28, %16
  %33 = load i32, ptr %4, align 4
  ret i32 %33
}

; Function Attrs: nounwind uwtable
define internal ptr @Hgetlongstr(ptr noundef %0, ptr noundef %1) #0 {
  %3 = alloca ptr, align 8
  %4 = alloca ptr, align 8
  %5 = alloca %struct.TValue, align 8
  %6 = alloca ptr, align 8
  %7 = alloca ptr, align 8
  store ptr %0, ptr %3, align 8, !tbaa !9
  store ptr %1, ptr %4, align 8, !tbaa !40
  call void @llvm.lifetime.start.p0(i64 16, ptr %5) #8
  call void @llvm.lifetime.start.p0(i64 8, ptr %6) #8
  store ptr %5, ptr %6, align 8, !tbaa !22
  call void @llvm.lifetime.start.p0(i64 8, ptr %7) #8
  %8 = load ptr, ptr %4, align 8, !tbaa !40
  store ptr %8, ptr %7, align 8, !tbaa !40
  %9 = load ptr, ptr %7, align 8, !tbaa !40
  %10 = load ptr, ptr %6, align 8, !tbaa !22
  %11 = getelementptr inbounds nuw %struct.TValue, ptr %10, i32 0, i32 0
  store ptr %9, ptr %11, align 8, !tbaa !21
  %12 = load ptr, ptr %7, align 8, !tbaa !40
  %13 = getelementptr inbounds nuw %struct.TString, ptr %12, i32 0, i32 1
  %14 = load i8, ptr %13, align 8, !tbaa !47
  %15 = zext i8 %14 to i32
  %16 = or i32 %15, 64
  %17 = trunc i32 %16 to i8
  %18 = load ptr, ptr %6, align 8, !tbaa !22
  %19 = getelementptr inbounds nuw %struct.TValue, ptr %18, i32 0, i32 1
  store i8 %17, ptr %19, align 8, !tbaa !24
  call void @llvm.lifetime.end.p0(i64 8, ptr %7) #8
  call void @llvm.lifetime.end.p0(i64 8, ptr %6) #8
  %20 = load ptr, ptr %3, align 8, !tbaa !9
  %21 = call ptr @getgeneric(ptr noundef %20, ptr noundef %5, i32 noundef 0)
  call void @llvm.lifetime.end.p0(i64 16, ptr %5) #8
  ret ptr %21
}

; Function Attrs: nounwind uwtable
define hidden i32 @luaH_psetstr(ptr noundef %0, ptr noundef %1, ptr noundef %2) #0 {
  %4 = alloca i32, align 4
  %5 = alloca ptr, align 8
  %6 = alloca ptr, align 8
  %7 = alloca ptr, align 8
  store ptr %0, ptr %5, align 8, !tbaa !9
  store ptr %1, ptr %6, align 8, !tbaa !40
  store ptr %2, ptr %7, align 8, !tbaa !22
  %8 = load ptr, ptr %6, align 8, !tbaa !40
  %9 = getelementptr inbounds nuw %struct.TString, ptr %8, i32 0, i32 4
  %10 = load i8, ptr %9, align 1, !tbaa !44
  %11 = sext i8 %10 to i32
  %12 = icmp sge i32 %11, 0
  br i1 %12, label %13, label %18

13:                                               ; preds = %3
  %14 = load ptr, ptr %5, align 8, !tbaa !9
  %15 = load ptr, ptr %6, align 8, !tbaa !40
  %16 = load ptr, ptr %7, align 8, !tbaa !22
  %17 = call i32 @luaH_psetshortstr(ptr noundef %14, ptr noundef %15, ptr noundef %16)
  store i32 %17, ptr %4, align 4
  br label %25

18:                                               ; preds = %3
  %19 = load ptr, ptr %5, align 8, !tbaa !9
  %20 = load ptr, ptr %5, align 8, !tbaa !9
  %21 = load ptr, ptr %6, align 8, !tbaa !40
  %22 = call ptr @Hgetlongstr(ptr noundef %20, ptr noundef %21)
  %23 = load ptr, ptr %7, align 8, !tbaa !22
  %24 = call i32 @finishnodeset(ptr noundef %19, ptr noundef %22, ptr noundef %23)
  store i32 %24, ptr %4, align 4
  br label %25

25:                                               ; preds = %18, %13
  %26 = load i32, ptr %4, align 4
  ret i32 %26
}