; Function Attrs: nounwind uwtable
define hidden range(i32 -2147483645, -2147483648) i32 @luaH_psetstr(ptr noundef captures(none) %0, ptr noundef %1, ptr noundef readonly captures(none) %2) local_unnamed_addr #0 {
  %4 = alloca %struct.TValue, align 8
  %5 = getelementptr inbounds nuw i8, ptr %1, i64 11
  %6 = load i8, ptr %5, align 1, !tbaa !28
  %7 = icmp sgt i8 %6, -1
  br i1 %7, label %8, label %10

8:                                                ; preds = %3
  %9 = tail call i32 @luaH_psetshortstr(ptr noundef %0, ptr noundef nonnull %1, ptr noundef %2)
  br label %finishnodeset.exit

10:                                               ; preds = %3
  call void @llvm.lifetime.start.p0(i64 16, ptr nonnull %4) #13
  store ptr %1, ptr %4, align 8, !tbaa !16
  %11 = getelementptr inbounds nuw i8, ptr %1, i64 8
  %12 = load i8, ptr %11, align 8, !tbaa !29
  %13 = or i8 %12, 64
  %14 = getelementptr inbounds nuw i8, ptr %4, i64 8
  store i8 %13, ptr %14, align 8, !tbaa !14
  %15 = call fastcc ptr @getgeneric(ptr noundef readonly %0, ptr noundef nonnull %4, i32 noundef 0)
  call void @llvm.lifetime.end.p0(i64 16, ptr nonnull %4) #13
  %16 = getelementptr inbounds nuw i8, ptr %15, i64 8
  %17 = load i8, ptr %16, align 8, !tbaa !14
  %18 = and i8 %17, 15
  %19 = icmp eq i8 %18, 0
  br i1 %19, label %24, label %20

20:                                               ; preds = %10
  %21 = load i64, ptr %2, align 8, !tbaa !16
  store i64 %21, ptr %15, align 8, !tbaa !16
  %22 = getelementptr inbounds nuw i8, ptr %2, i64 8
  %23 = load i8, ptr %22, align 8, !tbaa !14
  store i8 %23, ptr %16, align 8, !tbaa !14
  br label %finishnodeset.exit

24:                                               ; preds = %10
  %25 = icmp eq i8 %17, 32
  br i1 %25, label %finishnodeset.exit, label %26

26:                                               ; preds = %24
  %27 = getelementptr inbounds nuw i8, ptr %0, i64 24
  %28 = load ptr, ptr %27, align 8, !tbaa !18
  %29 = ptrtoint ptr %15 to i64
  %30 = ptrtoint ptr %28 to i64
  %31 = sub i64 %29, %30
  %32 = sdiv exact i64 %31, 24
  %33 = trunc i64 %32 to i32
  %34 = add nsw i32 %33, 3
  br label %finishnodeset.exit

finishnodeset.exit:                               ; preds = %26, %24, %20, %8
  %.0 = phi i32 [ %9, %8 ], [ 0, %20 ], [ %34, %26 ], [ 1, %24 ]
  ret i32 %.0
}